; Function Attrs: null_pointer_is_valid sspstrong uwtable
define hidden i32 @mapi_dissect_struct_PermissionsData(ptr noundef %0, i32 noundef %1, ptr noundef %2, ptr noundef %3, ptr noundef %4, ptr noundef %5, i32 noundef %6, i32 %7) local_unnamed_addr #0 {
  %9 = alloca i8, align 1
  %10 = getelementptr inbounds nuw i8, ptr %4, i64 26
  %11 = load i8, ptr %10, align 2, !range !9, !noundef !10
  store i8 1, ptr %10, align 2
  %.not = icmp eq ptr %3, null
  br i1 %.not, label %16, label %12

12:                                               ; preds = %8
  %13 = tail call ptr @proto_tree_add_item(ptr noundef nonnull %3, i32 noundef %6, ptr noundef %0, i32 noundef %1, i32 noundef -1, i32 noundef 0)
  %14 = load i32, ptr @ett_mapi_mapi_PermissionsData, align 4
  %15 = tail call ptr @proto_item_add_subtree(ptr noundef %13, i32 noundef %14)
  br label %16

16:                                               ; preds = %12, %8
  %.032 = phi ptr [ %15, %12 ], [ null, %8 ]
  %.0 = phi ptr [ %13, %12 ], [ null, %8 ]
  %17 = load i32, ptr @hf_mapi_mapi_PermissionsData_ModifyFlags, align 4
  call void @llvm.lifetime.start.p0(i64 1, ptr nonnull %9) #6
  %18 = load i32, ptr @ett_mapi_ModifyPermissionsFlags, align 4
  %19 = load i8, ptr %5, align 1
  %20 = and i8 %19, 16
  %21 = zext nneg i8 %20 to i32
  %22 = shl nuw i32 %21, 27
  %23 = tail call ptr @proto_tree_add_bitmask_with_flags(ptr noundef %.032, ptr noundef %0, i32 noundef %1, i32 noundef %17, i32 noundef %18, ptr noundef nonnull @mapi_dissect_bitmap_ModifyPermissionsFlags.mapi_ModifyPermissionsFlags_fields, i32 noundef %22, i32 noundef 4)
  %24 = call i32 @dissect_ndr_uint8(ptr noundef %0, i32 noundef %1, ptr noundef %2, ptr noundef %.032, ptr noundef %4, ptr noundef %5, i32 noundef -1, ptr noundef nonnull %9)
  %25 = load i8, ptr %9, align 1
  %.not.i.i = icmp eq i8 %25, 0
  br i1 %.not.i.i, label %26, label %27

26:                                               ; preds = %16
  call void (ptr, ptr, ...) @proto_item_append_text(ptr noundef %23, ptr noundef nonnull @.str.3868)
  %.pre.i.i = load i8, ptr %9, align 1
  br label %27

27:                                               ; preds = %26, %16
  %28 = phi i8 [ %.pre.i.i, %26 ], [ %25, %16 ]
  %29 = and i8 %28, -4
  %.not13.i.i = icmp eq i8 %29, 0
  br i1 %.not13.i.i, label %mapi_dissect_element_PermissionsData_ModifyFlags.exit, label %30

30:                                               ; preds = %27
  store i8 %29, ptr %9, align 1
  %31 = zext i8 %29 to i32
  call void (ptr, ptr, ...) @proto_item_append_text(ptr noundef %23, ptr noundef nonnull @.str.3869, i32 noundef %31)
  br label %mapi_dissect_element_PermissionsData_ModifyFlags.exit

mapi_dissect_element_PermissionsData_ModifyFlags.exit: ; preds = %27, %30
  call void @llvm.lifetime.end.p0(i64 1, ptr nonnull %9) #6
  %32 = load i32, ptr @hf_mapi_mapi_PermissionsData_ModifyCount, align 4
  %33 = call i32 @PIDL_dissect_uint16(ptr noundef %0, i32 noundef %24, ptr noundef %2, ptr noundef %.032, ptr noundef %4, ptr noundef %5, i32 noundef %32, i32 noundef 0)
  %34 = call i32 @dissect_ndr_ucarray(ptr noundef %0, i32 noundef %33, ptr noundef %2, ptr noundef %.032, ptr noundef %4, ptr noundef %5, ptr noundef nonnull @mapi_dissect_element_PermissionsData_PermissionsData_)
  %35 = sub i32 %34, %1
  call void @proto_item_set_len(ptr noundef %.0, i32 noundef %35)
  store i8 %11, ptr %10, align 2
  ret i32 %34
}